; ModuleID = '34/2889.c'
source_filename = "34/2889.c"
target datalayout = "e-m:e-p270:32:32-p271:32:32-p272:64:64-i64:64-f80:128-n8:16:32:64-S128"
target triple = "x86_64-pc-linux-gnu"

@.str = private unnamed_addr constant [3 x i8] c"%d\00", align 1
@.str.1 = private unnamed_addr constant [4 x i8] c"End\00", align 1
@.str.2 = private unnamed_addr constant [9 x i8] c"%d/2=%d\0A\00", align 1
@.str.3 = private unnamed_addr constant [11 x i8] c"%d*3+1=%d\0A\00", align 1

; Function Attrs: noinline nounwind uwtable
define dso_local i32 @main() #0 {
  %1 = alloca i32, align 4
  %2 = alloca i32, align 4
  %3 = alloca i32, align 4
  %4 = alloca i32, align 4
  %5 = alloca i32, align 4
  %6 = alloca i32, align 4
  %7 = alloca [100 x i32], align 16
  store i32 0, i32* %1, align 4
  store i32 0, i32* %4, align 4
  %8 = call i32 (i8*, ...) @__isoc99_scanf(i8* getelementptr inbounds ([3 x i8], [3 x i8]* @.str, i64 0, i64 0), i32* %5)
  %9 = load i32, i32* %5, align 4
  %10 = icmp eq i32 %9, 1
  br i1 %10, label %11, label %13

11:                                               ; preds = %0
  %12 = call i32 (i8*, ...) @printf(i8* getelementptr inbounds ([4 x i8], [4 x i8]* @.str.1, i64 0, i64 0))
  store i32 0, i32* %1, align 4
  br label %45

13:                                               ; preds = %0
  br label %14

14:                                               ; preds = %42, %13
  %15 = load i32, i32* %5, align 4
  %16 = icmp ne i32 %15, 1
  br i1 %16, label %17, label %43

17:                                               ; preds = %14
  %18 = load i32, i32* %5, align 4
  %19 = srem i32 %18, 2
  %20 = icmp eq i32 %19, 0
  br i1 %20, label %21, label %28

21:                                               ; preds = %17
  %22 = load i32, i32* %5, align 4
  %23 = load i32, i32* %5, align 4
  %24 = sdiv i32 %23, 2
  %25 = call i32 (i8*, ...) @printf(i8* getelementptr inbounds ([9 x i8], [9 x i8]* @.str.2, i64 0, i64 0), i32 %22, i32 %24)
  %26 = load i32, i32* %5, align 4
  %27 = sdiv i32 %26, 2
  store i32 %27, i32* %5, align 4
  br label %37

28:                                               ; preds = %17
  %29 = load i32, i32* %5, align 4
  %30 = load i32, i32* %5, align 4
  %31 = mul nsw i32 %30, 3
  %32 = add nsw i32 %31, 1
  %33 = call i32 (i8*, ...) @printf(i8* getelementptr inbounds ([11 x i8], [11 x i8]* @.str.3, i64 0, i64 0), i32 %29, i32 %32)
  %34 = load i32, i32* %5, align 4
  %35 = mul nsw i32 %34, 3
  %36 = add nsw i32 %35, 1
  store i32 %36, i32* %5, align 4
  br label %37

37:                                               ; preds = %28, %21
  %38 = load i32, i32* %5, align 4
  %39 = icmp eq i32 %38, 1
  br i1 %39, label %40, label %42

40:                                               ; preds = %37
  %41 = call i32 (i8*, ...) @printf(i8* getelementptr inbounds ([4 x i8], [4 x i8]* @.str.1, i64 0, i64 0))
  br label %43

42:                                               ; preds = %37
  br label %14

43:                                               ; preds = %40, %14
  br label %44

44:                                               ; preds = %43
  store i32 0, i32* %1, align 4
  br label %45

45:                                               ; preds = %44, %11
  %46 = load i32, i32* %1, align 4
  ret i32 %46
}

declare dso_local i32 @__isoc99_scanf(i8*, ...) #1

declare dso_local i32 @printf(i8*, ...) #1


!llvm.module.flags = !{!0}
!llvm.ident = !{!1}

!0 = !{i32 1, !"wchar_size", i32 4}
!1 = !{!"clang version 10.0.0-4ubuntu1 "}
